ARM GAS  /tmp/ccpdlhLT.s 			page 1


   1              		.cpu cortex-m3
   2              		.eabi_attribute 20, 1
   3              		.eabi_attribute 21, 1
   4              		.eabi_attribute 23, 3
   5              		.eabi_attribute 24, 1
   6              		.eabi_attribute 25, 1
   7              		.eabi_attribute 26, 1
   8              		.eabi_attribute 30, 1
   9              		.eabi_attribute 34, 1
  10              		.eabi_attribute 18, 4
  11              		.file	"stm32f1xx_it.c"
  12              		.text
  13              	.Ltext0:
  14              		.cfi_sections	.debug_frame
  15              		.section	.text.NMI_Handler,"ax",%progbits
  16              		.align	1
  17              		.global	NMI_Handler
  18              		.syntax unified
  19              		.thumb
  20              		.thumb_func
  21              		.fpu softvfp
  23              	NMI_Handler:
  24              	.LFB64:
  25              		.file 1 "Src/stm32f1xx_it.c"
   1:Src/stm32f1xx_it.c **** /**
   2:Src/stm32f1xx_it.c ****   ******************************************************************************
   3:Src/stm32f1xx_it.c ****   * @file    stm32f1xx_it.c
   4:Src/stm32f1xx_it.c ****   * @brief   Interrupt Service Routines.
   5:Src/stm32f1xx_it.c ****   ******************************************************************************
   6:Src/stm32f1xx_it.c ****   *
   7:Src/stm32f1xx_it.c ****   * COPYRIGHT(c) 2017 STMicroelectronics
   8:Src/stm32f1xx_it.c ****   *
   9:Src/stm32f1xx_it.c ****   * Redistribution and use in source and binary forms, with or without modification,
  10:Src/stm32f1xx_it.c ****   * are permitted provided that the following conditions are met:
  11:Src/stm32f1xx_it.c ****   *   1. Redistributions of source code must retain the above copyright notice,
  12:Src/stm32f1xx_it.c ****   *      this list of conditions and the following disclaimer.
  13:Src/stm32f1xx_it.c ****   *   2. Redistributions in binary form must reproduce the above copyright notice,
  14:Src/stm32f1xx_it.c ****   *      this list of conditions and the following disclaimer in the documentation
  15:Src/stm32f1xx_it.c ****   *      and/or other materials provided with the distribution.
  16:Src/stm32f1xx_it.c ****   *   3. Neither the name of STMicroelectronics nor the names of its contributors
  17:Src/stm32f1xx_it.c ****   *      may be used to endorse or promote products derived from this software
  18:Src/stm32f1xx_it.c ****   *      without specific prior written permission.
  19:Src/stm32f1xx_it.c ****   *
  20:Src/stm32f1xx_it.c ****   * THIS SOFTWARE IS PROVIDED BY THE COPYRIGHT HOLDERS AND CONTRIBUTORS "AS IS"
  21:Src/stm32f1xx_it.c ****   * AND ANY EXPRESS OR IMPLIED WARRANTIES, INCLUDING, BUT NOT LIMITED TO, THE
  22:Src/stm32f1xx_it.c ****   * IMPLIED WARRANTIES OF MERCHANTABILITY AND FITNESS FOR A PARTICULAR PURPOSE ARE
  23:Src/stm32f1xx_it.c ****   * DISCLAIMED. IN NO EVENT SHALL THE COPYRIGHT HOLDER OR CONTRIBUTORS BE LIABLE
  24:Src/stm32f1xx_it.c ****   * FOR ANY DIRECT, INDIRECT, INCIDENTAL, SPECIAL, EXEMPLARY, OR CONSEQUENTIAL
  25:Src/stm32f1xx_it.c ****   * DAMAGES (INCLUDING, BUT NOT LIMITED TO, PROCUREMENT OF SUBSTITUTE GOODS OR
  26:Src/stm32f1xx_it.c ****   * SERVICES; LOSS OF USE, DATA, OR PROFITS; OR BUSINESS INTERRUPTION) HOWEVER
  27:Src/stm32f1xx_it.c ****   * CAUSED AND ON ANY THEORY OF LIABILITY, WHETHER IN CONTRACT, STRICT LIABILITY,
  28:Src/stm32f1xx_it.c ****   * OR TORT (INCLUDING NEGLIGENCE OR OTHERWISE) ARISING IN ANY WAY OUT OF THE USE
  29:Src/stm32f1xx_it.c ****   * OF THIS SOFTWARE, EVEN IF ADVISED OF THE POSSIBILITY OF SUCH DAMAGE.
  30:Src/stm32f1xx_it.c ****   *
  31:Src/stm32f1xx_it.c ****   ******************************************************************************
  32:Src/stm32f1xx_it.c ****   */
  33:Src/stm32f1xx_it.c **** /* Includes ------------------------------------------------------------------*/
ARM GAS  /tmp/ccpdlhLT.s 			page 2


  34:Src/stm32f1xx_it.c **** #include "stm32f1xx_hal.h"
  35:Src/stm32f1xx_it.c **** #include "stm32f1xx.h"
  36:Src/stm32f1xx_it.c **** #include "stm32f1xx_it.h"
  37:Src/stm32f1xx_it.c **** 
  38:Src/stm32f1xx_it.c **** /* USER CODE BEGIN 0 */
  39:Src/stm32f1xx_it.c **** 
  40:Src/stm32f1xx_it.c **** /* USER CODE END 0 */
  41:Src/stm32f1xx_it.c **** 
  42:Src/stm32f1xx_it.c **** /* External variables --------------------------------------------------------*/
  43:Src/stm32f1xx_it.c **** 
  44:Src/stm32f1xx_it.c **** /******************************************************************************/
  45:Src/stm32f1xx_it.c **** /*            Cortex-M3 Processor Interruption and Exception Handlers         */ 
  46:Src/stm32f1xx_it.c **** /******************************************************************************/
  47:Src/stm32f1xx_it.c **** 
  48:Src/stm32f1xx_it.c **** /**
  49:Src/stm32f1xx_it.c **** * @brief This function handles Non maskable interrupt.
  50:Src/stm32f1xx_it.c **** */
  51:Src/stm32f1xx_it.c **** void NMI_Handler(void)
  52:Src/stm32f1xx_it.c **** {
  26              		.loc 1 52 0
  27              		.cfi_startproc
  28              		@ args = 0, pretend = 0, frame = 0
  29              		@ frame_needed = 0, uses_anonymous_args = 0
  30              		@ link register save eliminated.
  31 0000 7047     		bx	lr
  32              		.cfi_endproc
  33              	.LFE64:
  35              		.section	.text.HardFault_Handler,"ax",%progbits
  36              		.align	1
  37              		.global	HardFault_Handler
  38              		.syntax unified
  39              		.thumb
  40              		.thumb_func
  41              		.fpu softvfp
  43              	HardFault_Handler:
  44              	.LFB65:
  53:Src/stm32f1xx_it.c ****   /* USER CODE BEGIN NonMaskableInt_IRQn 0 */
  54:Src/stm32f1xx_it.c **** 
  55:Src/stm32f1xx_it.c ****   /* USER CODE END NonMaskableInt_IRQn 0 */
  56:Src/stm32f1xx_it.c ****   /* USER CODE BEGIN NonMaskableInt_IRQn 1 */
  57:Src/stm32f1xx_it.c **** 
  58:Src/stm32f1xx_it.c ****   /* USER CODE END NonMaskableInt_IRQn 1 */
  59:Src/stm32f1xx_it.c **** }
  60:Src/stm32f1xx_it.c **** 
  61:Src/stm32f1xx_it.c **** /**
  62:Src/stm32f1xx_it.c **** * @brief This function handles Hard fault interrupt.
  63:Src/stm32f1xx_it.c **** */
  64:Src/stm32f1xx_it.c **** void HardFault_Handler(void)
  65:Src/stm32f1xx_it.c **** {
  45              		.loc 1 65 0
  46              		.cfi_startproc
  47              		@ Volatile: function does not return.
  48              		@ args = 0, pretend = 0, frame = 0
  49              		@ frame_needed = 0, uses_anonymous_args = 0
  50              		@ link register save eliminated.
  51              	.L3:
  52 0000 FEE7     		b	.L3
ARM GAS  /tmp/ccpdlhLT.s 			page 3


  53              		.cfi_endproc
  54              	.LFE65:
  56              		.section	.text.MemManage_Handler,"ax",%progbits
  57              		.align	1
  58              		.global	MemManage_Handler
  59              		.syntax unified
  60              		.thumb
  61              		.thumb_func
  62              		.fpu softvfp
  64              	MemManage_Handler:
  65              	.LFB66:
  66:Src/stm32f1xx_it.c ****   /* USER CODE BEGIN HardFault_IRQn 0 */
  67:Src/stm32f1xx_it.c **** 
  68:Src/stm32f1xx_it.c ****   /* USER CODE END HardFault_IRQn 0 */
  69:Src/stm32f1xx_it.c ****   while (1)
  70:Src/stm32f1xx_it.c ****   {
  71:Src/stm32f1xx_it.c ****   }
  72:Src/stm32f1xx_it.c ****   /* USER CODE BEGIN HardFault_IRQn 1 */
  73:Src/stm32f1xx_it.c **** 
  74:Src/stm32f1xx_it.c ****   /* USER CODE END HardFault_IRQn 1 */
  75:Src/stm32f1xx_it.c **** }
  76:Src/stm32f1xx_it.c **** 
  77:Src/stm32f1xx_it.c **** /**
  78:Src/stm32f1xx_it.c **** * @brief This function handles Memory management fault.
  79:Src/stm32f1xx_it.c **** */
  80:Src/stm32f1xx_it.c **** void MemManage_Handler(void)
  81:Src/stm32f1xx_it.c **** {
  66              		.loc 1 81 0
  67              		.cfi_startproc
  68              		@ Volatile: function does not return.
  69              		@ args = 0, pretend = 0, frame = 0
  70              		@ frame_needed = 0, uses_anonymous_args = 0
  71              		@ link register save eliminated.
  72              	.L5:
  73 0000 FEE7     		b	.L5
  74              		.cfi_endproc
  75              	.LFE66:
  77              		.section	.text.BusFault_Handler,"ax",%progbits
  78              		.align	1
  79              		.global	BusFault_Handler
  80              		.syntax unified
  81              		.thumb
  82              		.thumb_func
  83              		.fpu softvfp
  85              	BusFault_Handler:
  86              	.LFB67:
  82:Src/stm32f1xx_it.c ****   /* USER CODE BEGIN MemoryManagement_IRQn 0 */
  83:Src/stm32f1xx_it.c **** 
  84:Src/stm32f1xx_it.c ****   /* USER CODE END MemoryManagement_IRQn 0 */
  85:Src/stm32f1xx_it.c ****   while (1)
  86:Src/stm32f1xx_it.c ****   {
  87:Src/stm32f1xx_it.c ****   }
  88:Src/stm32f1xx_it.c ****   /* USER CODE BEGIN MemoryManagement_IRQn 1 */
  89:Src/stm32f1xx_it.c **** 
  90:Src/stm32f1xx_it.c ****   /* USER CODE END MemoryManagement_IRQn 1 */
  91:Src/stm32f1xx_it.c **** }
  92:Src/stm32f1xx_it.c **** 
ARM GAS  /tmp/ccpdlhLT.s 			page 4


  93:Src/stm32f1xx_it.c **** /**
  94:Src/stm32f1xx_it.c **** * @brief This function handles Prefetch fault, memory access fault.
  95:Src/stm32f1xx_it.c **** */
  96:Src/stm32f1xx_it.c **** void BusFault_Handler(void)
  97:Src/stm32f1xx_it.c **** {
  87              		.loc 1 97 0
  88              		.cfi_startproc
  89              		@ Volatile: function does not return.
  90              		@ args = 0, pretend = 0, frame = 0
  91              		@ frame_needed = 0, uses_anonymous_args = 0
  92              		@ link register save eliminated.
  93              	.L7:
  94 0000 FEE7     		b	.L7
  95              		.cfi_endproc
  96              	.LFE67:
  98              		.section	.text.UsageFault_Handler,"ax",%progbits
  99              		.align	1
 100              		.global	UsageFault_Handler
 101              		.syntax unified
 102              		.thumb
 103              		.thumb_func
 104              		.fpu softvfp
 106              	UsageFault_Handler:
 107              	.LFB68:
  98:Src/stm32f1xx_it.c ****   /* USER CODE BEGIN BusFault_IRQn 0 */
  99:Src/stm32f1xx_it.c **** 
 100:Src/stm32f1xx_it.c ****   /* USER CODE END BusFault_IRQn 0 */
 101:Src/stm32f1xx_it.c ****   while (1)
 102:Src/stm32f1xx_it.c ****   {
 103:Src/stm32f1xx_it.c ****   }
 104:Src/stm32f1xx_it.c ****   /* USER CODE BEGIN BusFault_IRQn 1 */
 105:Src/stm32f1xx_it.c **** 
 106:Src/stm32f1xx_it.c ****   /* USER CODE END BusFault_IRQn 1 */
 107:Src/stm32f1xx_it.c **** }
 108:Src/stm32f1xx_it.c **** 
 109:Src/stm32f1xx_it.c **** /**
 110:Src/stm32f1xx_it.c **** * @brief This function handles Undefined instruction or illegal state.
 111:Src/stm32f1xx_it.c **** */
 112:Src/stm32f1xx_it.c **** void UsageFault_Handler(void)
 113:Src/stm32f1xx_it.c **** {
 108              		.loc 1 113 0
 109              		.cfi_startproc
 110              		@ Volatile: function does not return.
 111              		@ args = 0, pretend = 0, frame = 0
 112              		@ frame_needed = 0, uses_anonymous_args = 0
 113              		@ link register save eliminated.
 114              	.L9:
 115 0000 FEE7     		b	.L9
 116              		.cfi_endproc
 117              	.LFE68:
 119              		.section	.text.SVC_Handler,"ax",%progbits
 120              		.align	1
 121              		.global	SVC_Handler
 122              		.syntax unified
 123              		.thumb
 124              		.thumb_func
 125              		.fpu softvfp
ARM GAS  /tmp/ccpdlhLT.s 			page 5


 127              	SVC_Handler:
 128              	.LFB69:
 114:Src/stm32f1xx_it.c ****   /* USER CODE BEGIN UsageFault_IRQn 0 */
 115:Src/stm32f1xx_it.c **** 
 116:Src/stm32f1xx_it.c ****   /* USER CODE END UsageFault_IRQn 0 */
 117:Src/stm32f1xx_it.c ****   while (1)
 118:Src/stm32f1xx_it.c ****   {
 119:Src/stm32f1xx_it.c ****   }
 120:Src/stm32f1xx_it.c ****   /* USER CODE BEGIN UsageFault_IRQn 1 */
 121:Src/stm32f1xx_it.c **** 
 122:Src/stm32f1xx_it.c ****   /* USER CODE END UsageFault_IRQn 1 */
 123:Src/stm32f1xx_it.c **** }
 124:Src/stm32f1xx_it.c **** 
 125:Src/stm32f1xx_it.c **** /**
 126:Src/stm32f1xx_it.c **** * @brief This function handles System service call via SWI instruction.
 127:Src/stm32f1xx_it.c **** */
 128:Src/stm32f1xx_it.c **** void SVC_Handler(void)
 129:Src/stm32f1xx_it.c **** {
 129              		.loc 1 129 0
 130              		.cfi_startproc
 131              		@ args = 0, pretend = 0, frame = 0
 132              		@ frame_needed = 0, uses_anonymous_args = 0
 133              		@ link register save eliminated.
 134 0000 7047     		bx	lr
 135              		.cfi_endproc
 136              	.LFE69:
 138              		.section	.text.DebugMon_Handler,"ax",%progbits
 139              		.align	1
 140              		.global	DebugMon_Handler
 141              		.syntax unified
 142              		.thumb
 143              		.thumb_func
 144              		.fpu softvfp
 146              	DebugMon_Handler:
 147              	.LFB70:
 130:Src/stm32f1xx_it.c ****   /* USER CODE BEGIN SVCall_IRQn 0 */
 131:Src/stm32f1xx_it.c **** 
 132:Src/stm32f1xx_it.c ****   /* USER CODE END SVCall_IRQn 0 */
 133:Src/stm32f1xx_it.c ****   /* USER CODE BEGIN SVCall_IRQn 1 */
 134:Src/stm32f1xx_it.c **** 
 135:Src/stm32f1xx_it.c ****   /* USER CODE END SVCall_IRQn 1 */
 136:Src/stm32f1xx_it.c **** }
 137:Src/stm32f1xx_it.c **** 
 138:Src/stm32f1xx_it.c **** /**
 139:Src/stm32f1xx_it.c **** * @brief This function handles Debug monitor.
 140:Src/stm32f1xx_it.c **** */
 141:Src/stm32f1xx_it.c **** void DebugMon_Handler(void)
 142:Src/stm32f1xx_it.c **** {
 148              		.loc 1 142 0
 149              		.cfi_startproc
 150              		@ args = 0, pretend = 0, frame = 0
 151              		@ frame_needed = 0, uses_anonymous_args = 0
 152              		@ link register save eliminated.
 153 0000 7047     		bx	lr
 154              		.cfi_endproc
 155              	.LFE70:
 157              		.section	.text.PendSV_Handler,"ax",%progbits
ARM GAS  /tmp/ccpdlhLT.s 			page 6


 158              		.align	1
 159              		.global	PendSV_Handler
 160              		.syntax unified
 161              		.thumb
 162              		.thumb_func
 163              		.fpu softvfp
 165              	PendSV_Handler:
 166              	.LFB71:
 143:Src/stm32f1xx_it.c ****   /* USER CODE BEGIN DebugMonitor_IRQn 0 */
 144:Src/stm32f1xx_it.c **** 
 145:Src/stm32f1xx_it.c ****   /* USER CODE END DebugMonitor_IRQn 0 */
 146:Src/stm32f1xx_it.c ****   /* USER CODE BEGIN DebugMonitor_IRQn 1 */
 147:Src/stm32f1xx_it.c **** 
 148:Src/stm32f1xx_it.c ****   /* USER CODE END DebugMonitor_IRQn 1 */
 149:Src/stm32f1xx_it.c **** }
 150:Src/stm32f1xx_it.c **** 
 151:Src/stm32f1xx_it.c **** /**
 152:Src/stm32f1xx_it.c **** * @brief This function handles Pendable request for system service.
 153:Src/stm32f1xx_it.c **** */
 154:Src/stm32f1xx_it.c **** void PendSV_Handler(void)
 155:Src/stm32f1xx_it.c **** {
 167              		.loc 1 155 0
 168              		.cfi_startproc
 169              		@ args = 0, pretend = 0, frame = 0
 170              		@ frame_needed = 0, uses_anonymous_args = 0
 171              		@ link register save eliminated.
 172 0000 7047     		bx	lr
 173              		.cfi_endproc
 174              	.LFE71:
 176              		.section	.text.SysTick_Handler,"ax",%progbits
 177              		.align	1
 178              		.global	SysTick_Handler
 179              		.syntax unified
 180              		.thumb
 181              		.thumb_func
 182              		.fpu softvfp
 184              	SysTick_Handler:
 185              	.LFB72:
 156:Src/stm32f1xx_it.c ****   /* USER CODE BEGIN PendSV_IRQn 0 */
 157:Src/stm32f1xx_it.c **** 
 158:Src/stm32f1xx_it.c ****   /* USER CODE END PendSV_IRQn 0 */
 159:Src/stm32f1xx_it.c ****   /* USER CODE BEGIN PendSV_IRQn 1 */
 160:Src/stm32f1xx_it.c **** 
 161:Src/stm32f1xx_it.c ****   /* USER CODE END PendSV_IRQn 1 */
 162:Src/stm32f1xx_it.c **** }
 163:Src/stm32f1xx_it.c **** 
 164:Src/stm32f1xx_it.c **** /**
 165:Src/stm32f1xx_it.c **** * @brief This function handles System tick timer.
 166:Src/stm32f1xx_it.c **** */
 167:Src/stm32f1xx_it.c **** void SysTick_Handler(void)
 168:Src/stm32f1xx_it.c **** {
 186              		.loc 1 168 0
 187              		.cfi_startproc
 188              		@ args = 0, pretend = 0, frame = 0
 189              		@ frame_needed = 0, uses_anonymous_args = 0
 190              		.loc 1 168 0
 191 0000 08B5     		push	{r3, lr}
ARM GAS  /tmp/ccpdlhLT.s 			page 7


 192              	.LCFI0:
 193              		.cfi_def_cfa_offset 8
 194              		.cfi_offset 3, -8
 195              		.cfi_offset 14, -4
 169:Src/stm32f1xx_it.c ****   /* USER CODE BEGIN SysTick_IRQn 0 */
 170:Src/stm32f1xx_it.c **** 
 171:Src/stm32f1xx_it.c ****   /* USER CODE END SysTick_IRQn 0 */
 172:Src/stm32f1xx_it.c ****   HAL_IncTick();
 196              		.loc 1 172 0
 197 0002 FFF7FEFF 		bl	HAL_IncTick
 198              	.LVL0:
 173:Src/stm32f1xx_it.c ****   HAL_SYSTICK_IRQHandler();
 199              		.loc 1 173 0
 200 0006 FFF7FEFF 		bl	HAL_SYSTICK_IRQHandler
 201              	.LVL1:
 202 000a 08BD     		pop	{r3, pc}
 203              		.cfi_endproc
 204              	.LFE72:
 206              		.text
 207              	.Letext0:
 208              		.file 2 "/usr/arm-none-eabi/include/machine/_default_types.h"
 209              		.file 3 "/usr/arm-none-eabi/include/sys/_stdint.h"
 210              		.file 4 "Drivers/CMSIS/Include/core_cm3.h"
 211              		.file 5 "Drivers/CMSIS/Device/ST/STM32F1xx/Include/system_stm32f1xx.h"
 212              		.file 6 "/usr/arm-none-eabi/include/sys/lock.h"
 213              		.file 7 "/usr/arm-none-eabi/include/sys/_types.h"
 214              		.file 8 "/usr/lib/gcc/arm-none-eabi/6.2.0/include/stddef.h"
 215              		.file 9 "/usr/arm-none-eabi/include/sys/reent.h"
 216              		.file 10 "Drivers/STM32F1xx_HAL_Driver/Inc/stm32f1xx_hal.h"
 217              		.file 11 "Drivers/STM32F1xx_HAL_Driver/Inc/stm32f1xx_hal_cortex.h"
ARM GAS  /tmp/ccpdlhLT.s 			page 8

